target datalayout = "e-m:e-p270:32:32-p271:32:32-p272:64:64-i64:64-i128:128-f80:128-n8:16:32:64-S128"
target triple = "x86_64-pc-linux-gnu"

%struct.PagetableEntry = type { i32, i8, i8, i8, [5 x i64] }

; Function Attrs: nounwind uwtable
define internal i32 @tbm_shared_comparator(ptr noundef %0, ptr noundef %1, ptr noundef %2) #0 {
  %4 = alloca i32, align 4
  %5 = alloca ptr, align 8
  %6 = alloca ptr, align 8
  %7 = alloca ptr, align 8
  %8 = alloca ptr, align 8
  %9 = alloca ptr, align 8
  %10 = alloca ptr, align 8
  %11 = alloca i32, align 4
  store ptr %0, ptr %5, align 8
  store ptr %1, ptr %6, align 8
  store ptr %2, ptr %7, align 8
  call void @llvm.lifetime.start.p0(i64 8, ptr %8) #9
  %12 = load ptr, ptr %7, align 8
  store ptr %12, ptr %8, align 8
  call void @llvm.lifetime.start.p0(i64 8, ptr %9) #9
  %13 = load ptr, ptr %8, align 8
  %14 = load ptr, ptr %5, align 8
  %15 = load i32, ptr %14, align 4
  %16 = sext i32 %15 to i64
  %17 = getelementptr inbounds %struct.PagetableEntry, ptr %13, i64 %16
  store ptr %17, ptr %9, align 8
  call void @llvm.lifetime.start.p0(i64 8, ptr %10) #9
  %18 = load ptr, ptr %8, align 8
  %19 = load ptr, ptr %6, align 8
  %20 = load i32, ptr %19, align 4
  %21 = sext i32 %20 to i64
  %22 = getelementptr inbounds %struct.PagetableEntry, ptr %18, i64 %21
  store ptr %22, ptr %10, align 8
  %23 = load ptr, ptr %9, align 8
  %24 = getelementptr inbounds nuw %struct.PagetableEntry, ptr %23, i32 0, i32 0
  %25 = load i32, ptr %24, align 8
  %26 = load ptr, ptr %10, align 8
  %27 = getelementptr inbounds nuw %struct.PagetableEntry, ptr %26, i32 0, i32 0
  %28 = load i32, ptr %27, align 8
  %29 = icmp ult i32 %25, %28
  br i1 %29, label %30, label %31

30:                                               ; preds = %3
  store i32 -1, ptr %4, align 4
  store i32 1, ptr %11, align 4
  br label %42

31:                                               ; preds = %3
  %32 = load ptr, ptr %9, align 8
  %33 = getelementptr inbounds nuw %struct.PagetableEntry, ptr %32, i32 0, i32 0
  %34 = load i32, ptr %33, align 8
  %35 = load ptr, ptr %10, align 8
  %36 = getelementptr inbounds nuw %struct.PagetableEntry, ptr %35, i32 0, i32 0
  %37 = load i32, ptr %36, align 8
  %38 = icmp ugt i32 %34, %37
  br i1 %38, label %39, label %40

39:                                               ; preds = %31
  store i32 1, ptr %4, align 4
  store i32 1, ptr %11, align 4
  br label %42

40:                                               ; preds = %31
  br label %41

41:                                               ; preds = %40
  store i32 0, ptr %4, align 4
  store i32 1, ptr %11, align 4
  br label %42

42:                                               ; preds = %41, %39, %30
  call void @llvm.lifetime.end.p0(i64 8, ptr %10) #9
  call void @llvm.lifetime.end.p0(i64 8, ptr %9) #9
  call void @llvm.lifetime.end.p0(i64 8, ptr %8) #9
  %43 = load i32, ptr %4, align 4
  ret i32 %43
}