; Function Attrs: mustprogress nofree norecurse nosync nounwind willreturn memory(argmem: read) uwtable
define internal range(i32 -1, 2) i32 @tbm_shared_comparator(ptr noundef readonly captures(none) %0, ptr noundef readonly captures(none) %1, ptr noundef readonly captures(none) %2) #6 {
  %4 = load i32, ptr %0, align 4
  %5 = sext i32 %4 to i64
  %6 = getelementptr inbounds %struct.PagetableEntry, ptr %2, i64 %5
  %7 = load i32, ptr %1, align 4
  %8 = sext i32 %7 to i64
  %9 = getelementptr inbounds %struct.PagetableEntry, ptr %2, i64 %8
  %10 = load i32, ptr %6, align 8
  %11 = load i32, ptr %9, align 8
  %.0 = tail call i32 @llvm.ucmp.i32.i32(i32 %10, i32 %11)
  ret i32 %.0
}